; Function Attrs: mustprogress nounwind uwtable
define internal fastcc void @_ZSt8_DestroyIPN32pxrInternal_v0_24__pxrReserved__12_GLOBAL__N_115_CopyStackEntryES2_EvT_S4_RSaIT0_E(ptr noundef readonly %0, ptr noundef readnone %1) unnamed_addr #3 personality ptr @__gxx_personality_v0 {
  %.not4.i.i = icmp eq ptr %0, %1
  br i1 %.not4.i.i, label %_ZSt8_DestroyIPN32pxrInternal_v0_24__pxrReserved__12_GLOBAL__N_115_CopyStackEntryEEvT_S4_.exit, label %.lr.ph.i.i

.lr.ph.i.i:                                       ; preds = %2, %_ZSt8_DestroyIN32pxrInternal_v0_24__pxrReserved__12_GLOBAL__N_115_CopyStackEntryEEvPT_.exit.i.i
  %.05.i.i = phi ptr [ %40, %_ZSt8_DestroyIN32pxrInternal_v0_24__pxrReserved__12_GLOBAL__N_115_CopyStackEntryEEvPT_.exit.i.i ], [ %0, %2 ]
  %3 = getelementptr inbounds nuw i8, ptr %.05.i.i, i64 8
  %4 = load i32, ptr %3, align 4
  %.not.i.i.i.i.i.i = icmp eq i32 %4, 0
  br i1 %.not.i.i.i.i.i.i, label %_ZN32pxrInternal_v0_24__pxrReserved__7SdfPathD2Ev.exit.i.i.i.i, label %5

5:                                                ; preds = %.lr.ph.i.i
  %6 = and i32 %4, 255
  %7 = lshr i32 %4, 8
  %8 = zext nneg i32 %6 to i64
  %9 = getelementptr inbounds nuw [257 x ptr], ptr @_ZN32pxrInternal_v0_24__pxrReserved__8Sdf_PoolINS_15Sdf_PathPrimTagELj24ELj8ELj16384EE13_regionStartsE, i64 0, i64 %8
  %10 = load ptr, ptr %9, align 8
  %11 = mul nuw nsw i32 %7, 24
  %12 = zext nneg i32 %11 to i64
  %13 = getelementptr inbounds nuw i8, ptr %10, i64 %12
  %14 = getelementptr inbounds nuw i8, ptr %13, i64 8
  %15 = atomicrmw sub ptr %14, i32 1 seq_cst, align 4
  %16 = and i32 %15, 2147483647
  %17 = icmp eq i32 %16, 1
  br i1 %17, label %18, label %_ZN32pxrInternal_v0_24__pxrReserved__7SdfPathD2Ev.exit.i.i.i.i

18:                                               ; preds = %5
  invoke void @_ZNK32pxrInternal_v0_24__pxrReserved__12Sdf_PathNode8_DestroyEv(ptr noundef nonnull align 8 dereferenceable(16) %13)
          to label %_ZN32pxrInternal_v0_24__pxrReserved__7SdfPathD2Ev.exit.i.i.i.i unwind label %19

19:                                               ; preds = %18
  %20 = landingpad { ptr, i32 }
          catch ptr null
  %21 = extractvalue { ptr, i32 } %20, 0
  tail call void @__clang_call_terminate(ptr %21) #23
  unreachable

_ZN32pxrInternal_v0_24__pxrReserved__7SdfPathD2Ev.exit.i.i.i.i: ; preds = %18, %5, %.lr.ph.i.i
  %22 = load i32, ptr %.05.i.i, align 4
  %.not.i.i1.i.i.i.i = icmp eq i32 %22, 0
  br i1 %.not.i.i1.i.i.i.i, label %_ZSt8_DestroyIN32pxrInternal_v0_24__pxrReserved__12_GLOBAL__N_115_CopyStackEntryEEvPT_.exit.i.i, label %23

23:                                               ; preds = %_ZN32pxrInternal_v0_24__pxrReserved__7SdfPathD2Ev.exit.i.i.i.i
  %24 = and i32 %22, 255
  %25 = lshr i32 %22, 8
  %26 = zext nneg i32 %24 to i64
  %27 = getelementptr inbounds nuw [257 x ptr], ptr @_ZN32pxrInternal_v0_24__pxrReserved__8Sdf_PoolINS_15Sdf_PathPrimTagELj24ELj8ELj16384EE13_regionStartsE, i64 0, i64 %26
  %28 = load ptr, ptr %27, align 8
  %29 = mul nuw nsw i32 %25, 24
  %30 = zext nneg i32 %29 to i64
  %31 = getelementptr inbounds nuw i8, ptr %28, i64 %30
  %32 = getelementptr inbounds nuw i8, ptr %31, i64 8
  %33 = atomicrmw sub ptr %32, i32 1 seq_cst, align 4
  %34 = and i32 %33, 2147483647
  %35 = icmp eq i32 %34, 1
  br i1 %35, label %36, label %_ZSt8_DestroyIN32pxrInternal_v0_24__pxrReserved__12_GLOBAL__N_115_CopyStackEntryEEvPT_.exit.i.i

36:                                               ; preds = %23
  invoke void @_ZNK32pxrInternal_v0_24__pxrReserved__12Sdf_PathNode8_DestroyEv(ptr noundef nonnull align 8 dereferenceable(16) %31)
          to label %_ZSt8_DestroyIN32pxrInternal_v0_24__pxrReserved__12_GLOBAL__N_115_CopyStackEntryEEvPT_.exit.i.i unwind label %37

37:                                               ; preds = %36
  %38 = landingpad { ptr, i32 }
          catch ptr null
  %39 = extractvalue { ptr, i32 } %38, 0
  tail call void @__clang_call_terminate(ptr %39) #23
  unreachable

_ZSt8_DestroyIN32pxrInternal_v0_24__pxrReserved__12_GLOBAL__N_115_CopyStackEntryEEvPT_.exit.i.i: ; preds = %36, %23, %_ZN32pxrInternal_v0_24__pxrReserved__7SdfPathD2Ev.exit.i.i.i.i
  %40 = getelementptr inbounds nuw i8, ptr %.05.i.i, i64 16
  %.not.i.i = icmp eq ptr %40, %1
  br i1 %.not.i.i, label %_ZSt8_DestroyIPN32pxrInternal_v0_24__pxrReserved__12_GLOBAL__N_115_CopyStackEntryEEvT_S4_.exit, label %.lr.ph.i.i, !llvm.loop !55

_ZSt8_DestroyIPN32pxrInternal_v0_24__pxrReserved__12_GLOBAL__N_115_CopyStackEntryEEvT_S4_.exit: ; preds = %_ZSt8_DestroyIN32pxrInternal_v0_24__pxrReserved__12_GLOBAL__N_115_CopyStackEntryEEvPT_.exit.i.i, %2
  ret void
}